; ModuleID = 'source-C-CXX/32/1037.c'
source_filename = "source-C-CXX/32/1037.c"
target datalayout = "e-m:e-p270:32:32-p271:32:32-p272:64:64-i64:64-f80:128-n8:16:32:64-S128"
target triple = "x86_64-pc-linux-gnu"

@switch.table.main = private unnamed_addr constant [7 x i32] [i32 84, i32 65, i32 71, i32 65, i32 65, i32 65, i32 67], align 4

; Function Attrs: nounwind sspstrong uwtable
define dso_local i32 @main() local_unnamed_addr #0 {
  %1 = alloca [4 x i8], align 1
  %2 = alloca [256 x i8], align 16
  %3 = getelementptr inbounds [4 x i8], [4 x i8]* %1, i64 0, i64 0
  call void @llvm.lifetime.start.p0i8(i64 4, i8* nonnull %3) #6
  %4 = call i32 (i8*, ...) bitcast (i32 (...)* @gets to i32 (i8*, ...)*)(i8* nonnull %3) #6
  %5 = call i64 @strtol(i8* nocapture nonnull %3, i8** null, i32 10) #6
  %6 = trunc i64 %5 to i32
  %7 = getelementptr inbounds [256 x i8], [256 x i8]* %2, i64 0, i64 0
  %8 = icmp sgt i32 %6, 0
  br i1 %8, label %9, label %36

9:                                                ; preds = %0, %32
  %10 = phi i32 [ %34, %32 ], [ 0, %0 ]
  call void @llvm.lifetime.start.p0i8(i64 256, i8* nonnull %7) #6
  %11 = call i32 (i8*, ...) bitcast (i32 (...)* @gets to i32 (i8*, ...)*)(i8* nonnull %7) #6
  %12 = call i64 @strlen(i8* noundef nonnull %7) #7
  %13 = trunc i64 %12 to i32
  %14 = icmp sgt i32 %13, 0
  br i1 %14, label %15, label %32

15:                                               ; preds = %9
  %16 = and i64 %12, 4294967295
  br label %17

17:                                               ; preds = %15, %27
  %18 = phi i64 [ 0, %15 ], [ %30, %27 ]
  %19 = getelementptr inbounds [256 x i8], [256 x i8]* %2, i64 0, i64 %18
  %20 = load i8, i8* %19, align 1, !tbaa !5
  %21 = add i8 %20, -65
  %22 = icmp ult i8 %21, 7
  br i1 %22, label %23, label %27

23:                                               ; preds = %17
  %24 = sext i8 %21 to i64
  %25 = getelementptr inbounds [7 x i32], [7 x i32]* @switch.table.main, i64 0, i64 %24
  %26 = load i32, i32* %25, align 4
  br label %27

27:                                               ; preds = %17, %23
  %28 = phi i32 [ %26, %23 ], [ 65, %17 ]
  %29 = call i32 @putchar(i32 %28)
  %30 = add nuw nsw i64 %18, 1
  %31 = icmp eq i64 %30, %16
  br i1 %31, label %32, label %17, !llvm.loop !8

32:                                               ; preds = %27, %9
  %33 = call i32 @putchar(i32 10)
  call void @llvm.lifetime.end.p0i8(i64 256, i8* nonnull %7) #6
  %34 = add nuw nsw i32 %10, 1
  %35 = icmp eq i32 %34, %6
  br i1 %35, label %36, label %9, !llvm.loop !10

36:                                               ; preds = %32, %0
  call void @llvm.lifetime.end.p0i8(i64 4, i8* nonnull %3) #6
  ret i32 0
}

; Function Attrs: argmemonly mustprogress nofree nosync nounwind willreturn
declare void @llvm.lifetime.start.p0i8(i64 immarg, i8* nocapture) #1

declare i32 @gets(...) local_unnamed_addr #2

; Function Attrs: argmemonly mustprogress nofree nounwind readonly willreturn
declare i64 @strlen(i8* nocapture) local_unnamed_addr #3

; Function Attrs: argmemonly mustprogress nofree nosync nounwind willreturn
declare void @llvm.lifetime.end.p0i8(i64 immarg, i8* nocapture) #1

; Function Attrs: mustprogress nofree nounwind willreturn
declare i64 @strtol(i8* readonly, i8** nocapture, i32) local_unnamed_addr #4

; Function Attrs: nofree nounwind
declare noundef i32 @putchar(i32 noundef) local_unnamed_addr #5


!llvm.module.flags = !{!0, !1, !2, !3}
!llvm.ident = !{!4}

!0 = !{i32 1, !"wchar_size", i32 4}
!1 = !{i32 7, !"PIC Level", i32 2}
!2 = !{i32 7, !"PIE Level", i32 2}
!3 = !{i32 7, !"uwtable", i32 1}
!4 = !{!"clang version 13.0.0"}
!5 = !{!6, !6, i64 0}
!6 = !{!"omnipotent char", !7, i64 0}
!7 = !{!"Simple C/C++ TBAA"}
!8 = distinct !{!8, !9}
!9 = !{!"llvm.loop.mustprogress"}
!10 = distinct !{!10, !9}
